target datalayout = "e-m:e-p270:32:32-p271:32:32-p272:64:64-i64:64-i128:128-f80:128-n8:16:32:64-S128"
target triple = "x86_64-pc-linux-gnu"

%struct.Vec_Int_t_ = type { i32, i32, ptr }
%struct.Vec_Ptr_t_ = type { i32, i32, ptr }

@.str.36 = private unnamed_addr constant [18 x i8] c"Verifying resub:\0A\00", align 1
@.str.37 = private unnamed_addr constant [24 x i8] c"Mismatch in pattern %d\0A\00", align 1
@.str.38 = private unnamed_addr constant [27 x i8] c"Finished verifying resub.\0A\00", align 1

; Function Attrs: inlinehint nounwind uwtable
define internal ptr @Vec_IntAlloc(i32 noundef %0) #2 {
  %2 = alloca i32, align 4
  %3 = alloca ptr, align 8
  store i32 %0, ptr %2, align 4, !tbaa !10
  call void @llvm.lifetime.start.p0(i64 8, ptr %3) #14
  %4 = call noalias ptr @malloc(i64 noundef 16) #15
  store ptr %4, ptr %3, align 8, !tbaa !12
  %5 = load i32, ptr %2, align 4, !tbaa !10
  %6 = icmp sgt i32 %5, 0
  br i1 %6, label %7, label %11

7:                                                ; preds = %1
  %8 = load i32, ptr %2, align 4, !tbaa !10
  %9 = icmp slt i32 %8, 16
  br i1 %9, label %10, label %11

10:                                               ; preds = %7
  store i32 16, ptr %2, align 4, !tbaa !10
  br label %11

11:                                               ; preds = %10, %7, %1
  %12 = load ptr, ptr %3, align 8, !tbaa !12
  %13 = getelementptr inbounds nuw %struct.Vec_Int_t_, ptr %12, i32 0, i32 1
  store i32 0, ptr %13, align 4, !tbaa !14
  %14 = load i32, ptr %2, align 4, !tbaa !10
  %15 = load ptr, ptr %3, align 8, !tbaa !12
  %16 = getelementptr inbounds nuw %struct.Vec_Int_t_, ptr %15, i32 0, i32 0
  store i32 %14, ptr %16, align 8, !tbaa !17
  %17 = load ptr, ptr %3, align 8, !tbaa !12
  %18 = getelementptr inbounds nuw %struct.Vec_Int_t_, ptr %17, i32 0, i32 0
  %19 = load i32, ptr %18, align 8, !tbaa !17
  %20 = icmp ne i32 %19, 0
  br i1 %20, label %21, label %28

21:                                               ; preds = %11
  %22 = load ptr, ptr %3, align 8, !tbaa !12
  %23 = getelementptr inbounds nuw %struct.Vec_Int_t_, ptr %22, i32 0, i32 0
  %24 = load i32, ptr %23, align 8, !tbaa !17
  %25 = sext i32 %24 to i64
  %26 = mul i64 4, %25
  %27 = call noalias ptr @malloc(i64 noundef %26) #15
  br label %29

28:                                               ; preds = %11
  br label %29

29:                                               ; preds = %28, %21
  %30 = phi ptr [ %27, %21 ], [ null, %28 ]
  %31 = load ptr, ptr %3, align 8, !tbaa !12
  %32 = getelementptr inbounds nuw %struct.Vec_Int_t_, ptr %31, i32 0, i32 2
  store ptr %30, ptr %32, align 8, !tbaa !18
  %33 = load ptr, ptr %3, align 8, !tbaa !12
  call void @llvm.lifetime.end.p0(i64 8, ptr %3) #14
  ret ptr %33
}

; Function Attrs: inlinehint nounwind uwtable
define internal void @Vec_IntFree(ptr noundef %0) #2 {
  %2 = alloca ptr, align 8
  store ptr %0, ptr %2, align 8, !tbaa !12
  %3 = load ptr, ptr %2, align 8, !tbaa !12
  %4 = getelementptr inbounds nuw %struct.Vec_Int_t_, ptr %3, i32 0, i32 2
  %5 = load ptr, ptr %4, align 8, !tbaa !18
  %6 = icmp ne ptr %5, null
  br i1 %6, label %7, label %13

7:                                                ; preds = %1
  %8 = load ptr, ptr %2, align 8, !tbaa !12
  %9 = getelementptr inbounds nuw %struct.Vec_Int_t_, ptr %8, i32 0, i32 2
  %10 = load ptr, ptr %9, align 8, !tbaa !18
  call void @free(ptr noundef %10) #14
  %11 = load ptr, ptr %2, align 8, !tbaa !12
  %12 = getelementptr inbounds nuw %struct.Vec_Int_t_, ptr %11, i32 0, i32 2
  store ptr null, ptr %12, align 8, !tbaa !18
  br label %14

13:                                               ; preds = %1
  br label %14

14:                                               ; preds = %13, %7
  %15 = load ptr, ptr %2, align 8, !tbaa !12
  %16 = icmp ne ptr %15, null
  br i1 %16, label %17, label %19

17:                                               ; preds = %14
  %18 = load ptr, ptr %2, align 8, !tbaa !12
  call void @free(ptr noundef %18) #14
  store ptr null, ptr %2, align 8, !tbaa !12
  br label %20

19:                                               ; preds = %14
  br label %20

20:                                               ; preds = %19, %17
  ret void
}

; Function Attrs: inlinehint nounwind uwtable
define internal void @Vec_IntWriteEntry(ptr noundef %0, i32 noundef %1, i32 noundef %2) #2 {
  %4 = alloca ptr, align 8
  %5 = alloca i32, align 4
  %6 = alloca i32, align 4
  store ptr %0, ptr %4, align 8, !tbaa !12
  store i32 %1, ptr %5, align 4, !tbaa !10
  store i32 %2, ptr %6, align 4, !tbaa !10
  %7 = load i32, ptr %6, align 4, !tbaa !10
  %8 = load ptr, ptr %4, align 8, !tbaa !12
  %9 = getelementptr inbounds nuw %struct.Vec_Int_t_, ptr %8, i32 0, i32 2
  %10 = load ptr, ptr %9, align 8, !tbaa !18
  %11 = load i32, ptr %5, align 4, !tbaa !10
  %12 = sext i32 %11 to i64
  %13 = getelementptr inbounds i32, ptr %10, i64 %12
  store i32 %7, ptr %13, align 4, !tbaa !10
  ret void
}

; Function Attrs: inlinehint nounwind uwtable
define internal i32 @Vec_IntEntry(ptr noundef %0, i32 noundef %1) #2 {
  %3 = alloca ptr, align 8
  %4 = alloca i32, align 4
  store ptr %0, ptr %3, align 8, !tbaa !12
  store i32 %1, ptr %4, align 4, !tbaa !10
  %5 = load ptr, ptr %3, align 8, !tbaa !12
  %6 = getelementptr inbounds nuw %struct.Vec_Int_t_, ptr %5, i32 0, i32 2
  %7 = load ptr, ptr %6, align 8, !tbaa !18
  %8 = load i32, ptr %4, align 4, !tbaa !10
  %9 = sext i32 %8 to i64
  %10 = getelementptr inbounds i32, ptr %7, i64 %9
  %11 = load i32, ptr %10, align 4, !tbaa !10
  ret i32 %11
}

; Function Attrs: inlinehint nounwind uwtable
define internal i32 @Abc_TtGetBit(ptr noundef %0, i32 noundef %1) #2 {
  %3 = alloca ptr, align 8
  %4 = alloca i32, align 4
  store ptr %0, ptr %3, align 8, !tbaa !76
  store i32 %1, ptr %4, align 4, !tbaa !10
  %5 = load ptr, ptr %3, align 8, !tbaa !76
  %6 = load i32, ptr %4, align 4, !tbaa !10
  %7 = ashr i32 %6, 6
  %8 = sext i32 %7 to i64
  %9 = getelementptr inbounds i64, ptr %5, i64 %8
  %10 = load i64, ptr %9, align 8, !tbaa !65
  %11 = load i32, ptr %4, align 4, !tbaa !10
  %12 = and i32 %11, 63
  %13 = zext i32 %12 to i64
  %14 = lshr i64 %10, %13
  %15 = trunc i64 %14 to i32
  %16 = and i32 %15, 1
  ret i32 %16
}

; Function Attrs: inlinehint nounwind uwtable
define internal ptr @Vec_IntStartFull(i32 noundef %0) #2 {
  %2 = alloca i32, align 4
  %3 = alloca ptr, align 8
  store i32 %0, ptr %2, align 4, !tbaa !10
  call void @llvm.lifetime.start.p0(i64 8, ptr %3) #14
  %4 = load i32, ptr %2, align 4, !tbaa !10
  %5 = call ptr @Vec_IntAlloc(i32 noundef %4)
  store ptr %5, ptr %3, align 8, !tbaa !12
  %6 = load i32, ptr %2, align 4, !tbaa !10
  %7 = load ptr, ptr %3, align 8, !tbaa !12
  %8 = getelementptr inbounds nuw %struct.Vec_Int_t_, ptr %7, i32 0, i32 1
  store i32 %6, ptr %8, align 4, !tbaa !14
  %9 = load ptr, ptr %3, align 8, !tbaa !12
  %10 = getelementptr inbounds nuw %struct.Vec_Int_t_, ptr %9, i32 0, i32 2
  %11 = load ptr, ptr %10, align 8, !tbaa !18
  %12 = icmp ne ptr %11, null
  br i1 %12, label %13, label %20

13:                                               ; preds = %1
  %14 = load ptr, ptr %3, align 8, !tbaa !12
  %15 = getelementptr inbounds nuw %struct.Vec_Int_t_, ptr %14, i32 0, i32 2
  %16 = load ptr, ptr %15, align 8, !tbaa !18
  %17 = load i32, ptr %2, align 4, !tbaa !10
  %18 = sext i32 %17 to i64
  %19 = mul i64 4, %18
  call void @llvm.memset.p0.i64(ptr align 4 %16, i8 -1, i64 %19, i1 false)
  br label %20

20:                                               ; preds = %13, %1
  %21 = load ptr, ptr %3, align 8, !tbaa !12
  call void @llvm.lifetime.end.p0(i64 8, ptr %3) #14
  ret ptr %21
}

; Function Attrs: inlinehint nounwind uwtable
define internal ptr @Vec_PtrEntry(ptr noundef %0, i32 noundef %1) #2 {
  %3 = alloca ptr, align 8
  %4 = alloca i32, align 4
  store ptr %0, ptr %3, align 8, !tbaa !80
  store i32 %1, ptr %4, align 4, !tbaa !10
  %5 = load ptr, ptr %3, align 8, !tbaa !80
  %6 = getelementptr inbounds nuw %struct.Vec_Ptr_t_, ptr %5, i32 0, i32 2
  %7 = load ptr, ptr %6, align 8, !tbaa !84
  %8 = load i32, ptr %4, align 4, !tbaa !10
  %9 = sext i32 %8 to i64
  %10 = getelementptr inbounds ptr, ptr %7, i64 %9
  %11 = load ptr, ptr %10, align 8, !tbaa !99
  ret ptr %11
}

; Function Attrs: nounwind uwtable
define void @Gia_ManCheckResub(ptr noundef %0, i32 noundef %1) #0 {
  %3 = alloca ptr, align 8
  %4 = alloca i32, align 4
  %5 = alloca i32, align 4
  %6 = alloca i32, align 4
  %7 = alloca [10 x i32], align 16
  %8 = alloca ptr, align 8
  %9 = alloca ptr, align 8
  %10 = alloca ptr, align 8
  %11 = alloca i32, align 4
  %12 = alloca i32, align 4
  %13 = alloca i32, align 4
  %14 = alloca i32, align 4
  store ptr %0, ptr %3, align 8, !tbaa !80
  store i32 %1, ptr %4, align 4, !tbaa !10
  call void @llvm.lifetime.start.p0(i64 4, ptr %5) #14
  call void @llvm.lifetime.start.p0(i64 4, ptr %6) #14
  store i32 3, ptr %6, align 4, !tbaa !10
  call void @llvm.lifetime.start.p0(i64 40, ptr %7) #14
  call void @llvm.memset.p0.i64(ptr align 16 %7, i8 0, i64 40, i1 false)
  %15 = getelementptr inbounds [10 x i32], ptr %7, i32 0, i32 0
  store i32 2, ptr %15, align 16
  %16 = getelementptr inbounds [10 x i32], ptr %7, i32 0, i32 1
  store i32 3, ptr %16, align 4
  %17 = getelementptr inbounds [10 x i32], ptr %7, i32 0, i32 2
  store i32 4, ptr %17, align 8
  call void @llvm.lifetime.start.p0(i64 8, ptr %8) #14
  %18 = load ptr, ptr %3, align 8, !tbaa !80
  %19 = call ptr @Vec_PtrEntry(ptr noundef %18, i32 noundef 0)
  store ptr %19, ptr %8, align 8, !tbaa !76
  call void @llvm.lifetime.start.p0(i64 8, ptr %9) #14
  %20 = load ptr, ptr %3, align 8, !tbaa !80
  %21 = call ptr @Vec_PtrEntry(ptr noundef %20, i32 noundef 1)
  store ptr %21, ptr %9, align 8, !tbaa !76
  call void @llvm.lifetime.start.p0(i64 8, ptr %10) #14
  %22 = call ptr @Vec_IntStartFull(i32 noundef 64)
  store ptr %22, ptr %10, align 8, !tbaa !12
  %23 = call i32 (ptr, ...) @printf(ptr noundef @.str.36)
  store i32 0, ptr %5, align 4, !tbaa !10
  br label %24

24:                                               ; preds = %88, %2
  %25 = load i32, ptr %5, align 4, !tbaa !10
  %26 = load i32, ptr %4, align 4, !tbaa !10
  %27 = mul nsw i32 64, %26
  %28 = icmp slt i32 %25, %27
  br i1 %28, label %29, label %91

29:                                               ; preds = %24
  call void @llvm.lifetime.start.p0(i64 4, ptr %11) #14
  call void @llvm.lifetime.start.p0(i64 4, ptr %12) #14
  store i32 0, ptr %12, align 4, !tbaa !10
  call void @llvm.lifetime.start.p0(i64 4, ptr %13) #14
  %30 = load ptr, ptr %9, align 8, !tbaa !76
  %31 = load i32, ptr %5, align 4, !tbaa !10
  %32 = call i32 @Abc_TtGetBit(ptr noundef %30, i32 noundef %31)
  store i32 %32, ptr %13, align 4, !tbaa !10
  %33 = load ptr, ptr %8, align 8, !tbaa !76
  %34 = load i32, ptr %5, align 4, !tbaa !10
  %35 = call i32 @Abc_TtGetBit(ptr noundef %33, i32 noundef %34)
  %36 = icmp ne i32 %35, 0
  br i1 %36, label %41, label %37

37:                                               ; preds = %29
  %38 = load i32, ptr %13, align 4, !tbaa !10
  %39 = icmp ne i32 %38, 0
  br i1 %39, label %41, label %40

40:                                               ; preds = %37
  store i32 4, ptr %14, align 4
  br label %85

41:                                               ; preds = %37, %29
  store i32 0, ptr %11, align 4, !tbaa !10
  br label %42

42:                                               ; preds = %62, %41
  %43 = load i32, ptr %11, align 4, !tbaa !10
  %44 = load i32, ptr %6, align 4, !tbaa !10
  %45 = icmp slt i32 %43, %44
  br i1 %45, label %46, label %65

46:                                               ; preds = %42
  %47 = load ptr, ptr %3, align 8, !tbaa !80
  %48 = load i32, ptr %11, align 4, !tbaa !10
  %49 = sext i32 %48 to i64
  %50 = getelementptr inbounds [10 x i32], ptr %7, i64 0, i64 %49
  %51 = load i32, ptr %50, align 4, !tbaa !10
  %52 = call ptr @Vec_PtrEntry(ptr noundef %47, i32 noundef %51)
  %53 = load i32, ptr %5, align 4, !tbaa !10
  %54 = call i32 @Abc_TtGetBit(ptr noundef %52, i32 noundef %53)
  %55 = icmp ne i32 %54, 0
  br i1 %55, label %56, label %61

56:                                               ; preds = %46
  %57 = load i32, ptr %11, align 4, !tbaa !10
  %58 = shl i32 1, %57
  %59 = load i32, ptr %12, align 4, !tbaa !10
  %60 = or i32 %59, %58
  store i32 %60, ptr %12, align 4, !tbaa !10
  br label %61

61:                                               ; preds = %56, %46
  br label %62

62:                                               ; preds = %61
  %63 = load i32, ptr %11, align 4, !tbaa !10
  %64 = add nsw i32 %63, 1
  store i32 %64, ptr %11, align 4, !tbaa !10
  br label %42, !llvm.loop !221

65:                                               ; preds = %42
  %66 = load ptr, ptr %10, align 8, !tbaa !12
  %67 = load i32, ptr %12, align 4, !tbaa !10
  %68 = call i32 @Vec_IntEntry(ptr noundef %66, i32 noundef %67)
  %69 = icmp eq i32 %68, -1
  br i1 %69, label %70, label %74

70:                                               ; preds = %65
  %71 = load ptr, ptr %10, align 8, !tbaa !12
  %72 = load i32, ptr %12, align 4, !tbaa !10
  %73 = load i32, ptr %13, align 4, !tbaa !10
  call void @Vec_IntWriteEntry(ptr noundef %71, i32 noundef %72, i32 noundef %73)
  br label %84

74:                                               ; preds = %65
  %75 = load ptr, ptr %10, align 8, !tbaa !12
  %76 = load i32, ptr %12, align 4, !tbaa !10
  %77 = call i32 @Vec_IntEntry(ptr noundef %75, i32 noundef %76)
  %78 = load i32, ptr %13, align 4, !tbaa !10
  %79 = icmp ne i32 %77, %78
  br i1 %79, label %80, label %83

80:                                               ; preds = %74
  %81 = load i32, ptr %5, align 4, !tbaa !10
  %82 = call i32 (ptr, ...) @printf(ptr noundef @.str.37, i32 noundef %81)
  br label %83

83:                                               ; preds = %80, %74
  br label %84

84:                                               ; preds = %83, %70
  store i32 0, ptr %14, align 4
  br label %85

85:                                               ; preds = %84, %40
  call void @llvm.lifetime.end.p0(i64 4, ptr %13) #14
  call void @llvm.lifetime.end.p0(i64 4, ptr %12) #14
  call void @llvm.lifetime.end.p0(i64 4, ptr %11) #14
  %86 = load i32, ptr %14, align 4
  switch i32 %86, label %94 [
    i32 0, label %87
    i32 4, label %88
  ]

87:                                               ; preds = %85
  br label %88

88:                                               ; preds = %87, %85
  %89 = load i32, ptr %5, align 4, !tbaa !10
  %90 = add nsw i32 %89, 1
  store i32 %90, ptr %5, align 4, !tbaa !10
  br label %24, !llvm.loop !222

91:                                               ; preds = %24
  %92 = call i32 (ptr, ...) @printf(ptr noundef @.str.38)
  %93 = load ptr, ptr %10, align 8, !tbaa !12
  call void @Vec_IntFree(ptr noundef %93)
  call void @llvm.lifetime.end.p0(i64 8, ptr %10) #14
  call void @llvm.lifetime.end.p0(i64 8, ptr %9) #14
  call void @llvm.lifetime.end.p0(i64 8, ptr %8) #14
  call void @llvm.lifetime.end.p0(i64 40, ptr %7) #14
  call void @llvm.lifetime.end.p0(i64 4, ptr %6) #14
  call void @llvm.lifetime.end.p0(i64 4, ptr %5) #14
  ret void

94:                                               ; preds = %85
  unreachable
}