; Function Attrs: nounwind uwtable
define void @Gia_ManCheckResub(ptr noundef readonly captures(none) %0, i32 noundef %1) local_unnamed_addr #0 {
  %3 = alloca [10 x i32], align 16
  call void @llvm.lifetime.start.p0(i64 40, ptr nonnull %3) #32
  call void @llvm.memset.p0.i64(ptr noundef nonnull align 16 dereferenceable(40) %3, i8 0, i64 40, i1 false)
  store i32 2, ptr %3, align 16
  %4 = getelementptr inbounds nuw i8, ptr %3, i64 4
  store i32 3, ptr %4, align 4
  %5 = getelementptr inbounds nuw i8, ptr %3, i64 8
  store i32 4, ptr %5, align 8
  %6 = getelementptr i8, ptr %0, i64 8
  %.val36 = load ptr, ptr %6, align 8, !tbaa !76
  %7 = load ptr, ptr %.val36, align 8, !tbaa !93
  %8 = getelementptr inbounds nuw i8, ptr %.val36, i64 8
  %9 = load ptr, ptr %8, align 8, !tbaa !93
  %10 = tail call noalias dereferenceable_or_null(256) ptr @malloc(i64 noundef 256) #31
  %.not.i = icmp eq ptr %10, null
  br i1 %.not.i, label %Vec_IntStartFull.exit, label %11

11:                                               ; preds = %2
  tail call void @llvm.memset.p0.i64(ptr noundef nonnull align 4 dereferenceable(256) %10, i8 -1, i64 256, i1 false)
  br label %Vec_IntStartFull.exit

Vec_IntStartFull.exit:                            ; preds = %2, %11
  %puts = tail call i32 @puts(ptr nonnull dereferenceable(1) @str.2)
  %12 = icmp sgt i32 %1, 0
  br i1 %12, label %.lr.ph.preheader, label %._crit_edge

.lr.ph.preheader:                                 ; preds = %Vec_IntStartFull.exit
  %13 = shl i32 %1, 6
  %smax = tail call i32 @llvm.smax.i32(i32 %13, i32 1)
  br label %.lr.ph

.lr.ph:                                           ; preds = %.lr.ph.preheader, %50
  %.040 = phi i32 [ %51, %50 ], [ 0, %.lr.ph.preheader ]
  %14 = lshr i32 %.040, 6
  %15 = zext nneg i32 %14 to i64
  %16 = getelementptr inbounds nuw i64, ptr %9, i64 %15
  %17 = load i64, ptr %16, align 8, !tbaa !94
  %18 = and i32 %.040, 63
  %19 = zext nneg i32 %18 to i64
  %20 = lshr i64 %17, %19
  %21 = trunc i64 %20 to i32
  %22 = and i32 %21, 1
  %23 = getelementptr inbounds nuw i64, ptr %7, i64 %15
  %24 = load i64, ptr %23, align 8, !tbaa !94
  %25 = shl nuw i64 1, %19
  %26 = and i64 %24, %25
  %27 = icmp ne i64 %26, 0
  %28 = icmp ne i32 %22, 0
  %or.cond = select i1 %27, i1 true, i1 %28
  br i1 %or.cond, label %.preheader, label %50

.preheader:                                       ; preds = %.lr.ph
  %.val34 = load ptr, ptr %6, align 8, !tbaa !76
  br label %29

29:                                               ; preds = %.preheader, %29
  %indvars.iv = phi i64 [ 0, %.preheader ], [ %indvars.iv.next, %29 ]
  %.02839 = phi i32 [ 0, %.preheader ], [ %.1, %29 ]
  %30 = getelementptr inbounds nuw [10 x i32], ptr %3, i64 0, i64 %indvars.iv
  %31 = load i32, ptr %30, align 4, !tbaa !31
  %32 = sext i32 %31 to i64
  %33 = getelementptr inbounds ptr, ptr %.val34, i64 %32
  %34 = load ptr, ptr %33, align 8, !tbaa !93
  %35 = getelementptr inbounds nuw i64, ptr %34, i64 %15
  %36 = load i64, ptr %35, align 8, !tbaa !94
  %37 = and i64 %36, %25
  %.not31 = icmp eq i64 %37, 0
  %38 = trunc nuw nsw i64 %indvars.iv to i32
  %39 = shl nuw nsw i32 1, %38
  %40 = select i1 %.not31, i32 0, i32 %39
  %.1 = or i32 %40, %.02839
  %indvars.iv.next = add nuw nsw i64 %indvars.iv, 1
  %exitcond.not = icmp eq i64 %indvars.iv.next, 3
  br i1 %exitcond.not, label %41, label %29, !llvm.loop !197

41:                                               ; preds = %29
  %42 = sext i32 %.1 to i64
  %43 = getelementptr inbounds i32, ptr %10, i64 %42
  %44 = load i32, ptr %43, align 4, !tbaa !31
  %45 = icmp eq i32 %44, -1
  br i1 %45, label %46, label %47

46:                                               ; preds = %41
  store i32 %22, ptr %43, align 4, !tbaa !31
  br label %50

47:                                               ; preds = %41
  %.not = icmp eq i32 %44, %22
  br i1 %.not, label %50, label %48

48:                                               ; preds = %47
  %49 = tail call i32 (ptr, ...) @printf(ptr noundef nonnull dereferenceable(1) @.str.37, i32 noundef %.040)
  br label %50

50:                                               ; preds = %46, %48, %47, %.lr.ph
  %51 = add nuw nsw i32 %.040, 1
  %exitcond42.not = icmp eq i32 %51, %smax
  br i1 %exitcond42.not, label %._crit_edge, label %.lr.ph, !llvm.loop !198

._crit_edge:                                      ; preds = %50, %Vec_IntStartFull.exit
  %puts30 = tail call i32 @puts(ptr nonnull dereferenceable(1) @str.3)
  br i1 %.not.i, label %Vec_IntFree.exit, label %52

52:                                               ; preds = %._crit_edge
  tail call void @free(ptr noundef nonnull %10) #32
  br label %Vec_IntFree.exit

Vec_IntFree.exit:                                 ; preds = %._crit_edge, %52
  call void @llvm.lifetime.end.p0(i64 40, ptr nonnull %3) #32
  ret void
}